; Function Attrs: nounwind uwtable
define ptr @l_Lake_instEmptyCollectionLeanLibConfig___lambda__1___boxed(ptr noundef %0, ptr noundef %1) #1 {
  %3 = ptrtoint ptr %1 to i64
  %4 = and i64 %3, 1
  %.not = icmp eq i64 %4, 0
  br i1 %.not, label %5, label %lean_dec.exit

5:                                                ; preds = %2
  %6 = load i32, ptr %1, align 4, !tbaa !10
  %7 = icmp sgt i32 %6, 1
  br i1 %7, label %8, label %10, !prof !13

8:                                                ; preds = %5
  %9 = add nsw i32 %6, -1
  store i32 %9, ptr %1, align 4, !tbaa !10
  br label %lean_dec.exit

10:                                               ; preds = %5
  %.not.i = icmp eq i32 %6, 0
  br i1 %.not.i, label %lean_dec.exit, label %11

11:                                               ; preds = %10
  tail call void @lean_dec_ref_cold(ptr noundef nonnull %1) #8
  br label %lean_dec.exit

lean_dec.exit:                                    ; preds = %11, %10, %8, %2
  %12 = and i64 %3, 510
  %13 = icmp eq i64 %12, 0
  br i1 %13, label %14, label %19

14:                                               ; preds = %lean_dec.exit
  %15 = load ptr, ptr @l_Lake_Module_oFacet, align 8, !tbaa !4
  tail call void @lean_inc_heartbeat() #8
  %16 = tail call noalias ptr @mi_malloc_small(i64 noundef 24) #8
  %17 = icmp eq ptr %16, null
  br i1 %17, label %18, label %l_Lake_instEmptyCollectionLeanLibConfig___lambda__1.exit

18:                                               ; preds = %14
  tail call void @lean_internal_panic_out_of_memory() #9
  unreachable

19:                                               ; preds = %lean_dec.exit
  %20 = load ptr, ptr @l_Lake_Module_oExportFacet, align 8, !tbaa !4
  tail call void @lean_inc_heartbeat() #8
  %21 = tail call noalias ptr @mi_malloc_small(i64 noundef 24) #8
  %22 = icmp eq ptr %21, null
  br i1 %22, label %23, label %l_Lake_instEmptyCollectionLeanLibConfig___lambda__1.exit

23:                                               ; preds = %19
  tail call void @lean_internal_panic_out_of_memory() #9
  unreachable

l_Lake_instEmptyCollectionLeanLibConfig___lambda__1.exit: ; preds = %14, %19
  %.sink21.i = phi ptr [ %16, %14 ], [ %21, %19 ]
  %.sink16.i = phi ptr [ %15, %14 ], [ %20, %19 ]
  %24 = getelementptr inbounds nuw i8, ptr %.sink21.i, i64 4
  store i32 1, ptr %.sink21.i, align 4, !tbaa !10
  store i32 16908312, ptr %24, align 4
  %25 = getelementptr inbounds nuw i8, ptr %.sink21.i, i64 8
  store ptr %.sink16.i, ptr %25, align 8, !tbaa !4
  %26 = getelementptr inbounds nuw i8, ptr %.sink21.i, i64 16
  store ptr %0, ptr %26, align 8, !tbaa !4
  %27 = tail call ptr @lean_array_mk(ptr noundef nonnull %.sink21.i) #8
  ret ptr %27
}